target datalayout = "e-m:e-p270:32:32-p271:32:32-p272:64:64-i64:64-i128:128-f80:128-n8:16:32:64-S128"
target triple = "x86_64-pc-linux-gnu"

%"class.llvm::StringRef" = type { ptr, i64 }
%"class.llvm::SmallVectorBase" = type { ptr, i32, i32 }

; Function Attrs: mustprogress nounwind uwtable
define linkonce_odr hidden noundef ptr @_ZNK4llvm25SmallVectorTemplateCommonINS_9StringRefEvE10getFirstElEv(ptr noundef nonnull align 8 dereferenceable(16) %0) #0 comdat align 2 {
  %2 = alloca ptr, align 8
  store ptr %0, ptr %2, align 8
  %3 = load ptr, ptr %2, align 8
  %4 = getelementptr inbounds i8, ptr %3, i64 16
  ret ptr %4
}

; Function Attrs: mustprogress nounwind uwtable
define linkonce_odr hidden void @_ZN4llvm25SmallVectorTemplateCommonINS_9StringRefEvE8grow_podEmm(ptr noundef nonnull align 8 dereferenceable(16) %0, i64 noundef %1, i64 noundef %2) #0 comdat align 2 {
  %4 = alloca ptr, align 8
  %5 = alloca i64, align 8
  %6 = alloca i64, align 8
  store ptr %0, ptr %4, align 8
  store i64 %1, ptr %5, align 8
  store i64 %2, ptr %6, align 8
  %7 = load ptr, ptr %4, align 8
  %8 = call noundef ptr @_ZNK4llvm25SmallVectorTemplateCommonINS_9StringRefEvE10getFirstElEv(ptr noundef nonnull align 8 dereferenceable(16) %7)
  %9 = load i64, ptr %5, align 8
  %10 = load i64, ptr %6, align 8
  call void @_ZN4llvm15SmallVectorBaseIjE8grow_podEPvmm(ptr noundef nonnull align 8 dereferenceable(16) %7, ptr noundef %8, i64 noundef %9, i64 noundef %10)
  ret void
}

; Function Attrs: mustprogress nounwind uwtable
define linkonce_odr hidden void @_ZN4llvm23SmallVectorTemplateBaseINS_9StringRefELb1EE4growEm(ptr noundef nonnull align 8 dereferenceable(16) %0, i64 noundef %1) #0 comdat align 2 {
  %3 = alloca ptr, align 8
  %4 = alloca i64, align 8
  store ptr %0, ptr %3, align 8
  store i64 %1, ptr %4, align 8
  %5 = load ptr, ptr %3, align 8
  %6 = load i64, ptr %4, align 8
  call void @_ZN4llvm25SmallVectorTemplateCommonINS_9StringRefEvE8grow_podEmm(ptr noundef nonnull align 8 dereferenceable(16) %5, i64 noundef %6, i64 noundef 16)
  ret void
}

; Function Attrs: mustprogress nounwind uwtable
define linkonce_odr hidden noundef ptr @_ZN4llvm25SmallVectorTemplateCommonINS_9StringRefEvE5beginEv(ptr noundef nonnull align 8 dereferenceable(16) %0) #0 comdat align 2 {
  %2 = alloca ptr, align 8
  store ptr %0, ptr %2, align 8
  %3 = load ptr, ptr %2, align 8
  %4 = getelementptr inbounds nuw %"class.llvm::SmallVectorBase", ptr %3, i32 0, i32 0
  %5 = load ptr, ptr %4, align 8
  ret ptr %5
}

; Function Attrs: mustprogress nounwind uwtable
define linkonce_odr hidden noundef ptr @_ZN4llvm25SmallVectorTemplateCommonINS_9StringRefEvE32reserveForParamAndGetAddressImplINS_23SmallVectorTemplateBaseIS1_Lb1EEEEEPKS1_PT_RS6_m(ptr noundef %0, ptr noundef nonnull align 8 dereferenceable(16) %1, i64 noundef %2) #0 comdat align 2 {
  %4 = alloca ptr, align 8
  %5 = alloca ptr, align 8
  %6 = alloca ptr, align 8
  %7 = alloca i64, align 8
  %8 = alloca i64, align 8
  %9 = alloca i8, align 1
  %10 = alloca i64, align 8
  store ptr %0, ptr %5, align 8
  store ptr %1, ptr %6, align 8
  store i64 %2, ptr %7, align 8
  %11 = load ptr, ptr %5, align 8
  %12 = call noundef i64 @_ZNK4llvm15SmallVectorBaseIjE4sizeEv(ptr noundef nonnull align 8 dereferenceable(16) %11)
  %13 = load i64, ptr %7, align 8
  %14 = add i64 %12, %13
  store i64 %14, ptr %8, align 8
  %15 = load i64, ptr %8, align 8
  %16 = load ptr, ptr %5, align 8
  %17 = call noundef i64 @_ZNK4llvm15SmallVectorBaseIjE8capacityEv(ptr noundef nonnull align 8 dereferenceable(16) %16)
  %18 = icmp ule i64 %15, %17
  br i1 %18, label %19, label %21

19:                                               ; preds = %3
  %20 = load ptr, ptr %6, align 8
  store ptr %20, ptr %4, align 8
  br label %35

21:                                               ; preds = %3
  store i8 0, ptr %9, align 1
  store i64 -1, ptr %10, align 8
  %22 = load ptr, ptr %5, align 8
  %23 = load i64, ptr %8, align 8
  call void @_ZN4llvm23SmallVectorTemplateBaseINS_9StringRefELb1EE4growEm(ptr noundef nonnull align 8 dereferenceable(16) %22, i64 noundef %23)
  %24 = load i8, ptr %9, align 1
  %25 = trunc i8 %24 to i1
  br i1 %25, label %26, label %31

26:                                               ; preds = %21
  %27 = load ptr, ptr %5, align 8
  %28 = call noundef ptr @_ZN4llvm25SmallVectorTemplateCommonINS_9StringRefEvE5beginEv(ptr noundef nonnull align 8 dereferenceable(16) %27)
  %29 = load i64, ptr %10, align 8
  %30 = getelementptr inbounds %"class.llvm::StringRef", ptr %28, i64 %29
  br label %33

31:                                               ; preds = %21
  %32 = load ptr, ptr %6, align 8
  br label %33

33:                                               ; preds = %31, %26
  %34 = phi ptr [ %30, %26 ], [ %32, %31 ]
  store ptr %34, ptr %4, align 8
  br label %35

35:                                               ; preds = %33, %19
  %36 = load ptr, ptr %4, align 8
  ret ptr %36
}

; Function Attrs: mustprogress nounwind uwtable
define linkonce_odr noundef nonnull align 8 dereferenceable(8) ptr @_ZSt3maxImERKT_S2_S2_(ptr noundef nonnull align 8 dereferenceable(8) %0, ptr noundef nonnull align 8 dereferenceable(8) %1) #0 comdat {
  %3 = alloca ptr, align 8
  %4 = alloca ptr, align 8
  %5 = alloca ptr, align 8
  store ptr %0, ptr %4, align 8
  store ptr %1, ptr %5, align 8
  %6 = load ptr, ptr %4, align 8
  %7 = load i64, ptr %6, align 8
  %8 = load ptr, ptr %5, align 8
  %9 = load i64, ptr %8, align 8
  %10 = icmp ult i64 %7, %9
  br i1 %10, label %11, label %13

11:                                               ; preds = %2
  %12 = load ptr, ptr %5, align 8
  store ptr %12, ptr %3, align 8
  br label %15

13:                                               ; preds = %2
  %14 = load ptr, ptr %4, align 8
  store ptr %14, ptr %3, align 8
  br label %15

15:                                               ; preds = %13, %11
  %16 = load ptr, ptr %3, align 8
  ret ptr %16
}

; Function Attrs: mustprogress nounwind uwtable
define linkonce_odr hidden noundef ptr @_ZN4llvm25SmallVectorTemplateCommonINS_9StringRefEvE3endEv(ptr noundef nonnull align 8 dereferenceable(16) %0) #0 comdat align 2 {
  %2 = alloca ptr, align 8
  store ptr %0, ptr %2, align 8
  %3 = load ptr, ptr %2, align 8
  %4 = call noundef ptr @_ZN4llvm25SmallVectorTemplateCommonINS_9StringRefEvE5beginEv(ptr noundef nonnull align 8 dereferenceable(16) %3)
  %5 = call noundef i64 @_ZNK4llvm15SmallVectorBaseIjE4sizeEv(ptr noundef nonnull align 8 dereferenceable(16) %3)
  %6 = getelementptr inbounds %"class.llvm::StringRef", ptr %4, i64 %5
  ret ptr %6
}

; Function Attrs: mustprogress nounwind uwtable
define linkonce_odr hidden noundef ptr @_ZN4llvm23SmallVectorTemplateBaseINS_9StringRefELb1EE28reserveForParamAndGetAddressERS1_m(ptr noundef nonnull align 8 dereferenceable(16) %0, ptr noundef nonnull align 8 dereferenceable(16) %1, i64 noundef %2) #0 comdat align 2 {
  %4 = alloca ptr, align 8
  %5 = alloca ptr, align 8
  %6 = alloca i64, align 8
  store ptr %0, ptr %4, align 8
  store ptr %1, ptr %5, align 8
  store i64 %2, ptr %6, align 8
  %7 = load ptr, ptr %4, align 8
  %8 = load ptr, ptr %5, align 8
  %9 = load i64, ptr %6, align 8
  %10 = call noundef ptr @_ZN4llvm25SmallVectorTemplateCommonINS_9StringRefEvE32reserveForParamAndGetAddressImplINS_23SmallVectorTemplateBaseIS1_Lb1EEEEEPKS1_PT_RS6_m(ptr noundef %7, ptr noundef nonnull align 8 dereferenceable(16) %8, i64 noundef %9)
  ret ptr %10
}

; Function Attrs: mustprogress nounwind uwtable
define linkonce_odr hidden void @_ZN4llvm9StringRefC2EPKcm(ptr noundef nonnull align 8 dereferenceable(16) %0, ptr noundef %1, i64 noundef %2) unnamed_addr #0 comdat align 2 {
  %4 = alloca ptr, align 8
  %5 = alloca ptr, align 8
  %6 = alloca i64, align 8
  store ptr %0, ptr %4, align 8
  store ptr %1, ptr %5, align 8
  store i64 %2, ptr %6, align 8
  %7 = load ptr, ptr %4, align 8
  %8 = getelementptr inbounds nuw %"class.llvm::StringRef", ptr %7, i32 0, i32 0
  %9 = load ptr, ptr %5, align 8
  store ptr %9, ptr %8, align 8
  %10 = getelementptr inbounds nuw %"class.llvm::StringRef", ptr %7, i32 0, i32 1
  %11 = load i64, ptr %6, align 8
  store i64 %11, ptr %10, align 8
  ret void
}

; Function Attrs: mustprogress nounwind uwtable
define linkonce_odr noundef nonnull align 8 dereferenceable(8) ptr @_ZSt5clampImERKT_S2_S2_S2_(ptr noundef nonnull align 8 dereferenceable(8) %0, ptr noundef nonnull align 8 dereferenceable(8) %1, ptr noundef nonnull align 8 dereferenceable(8) %2) #0 comdat {
  %4 = alloca ptr, align 8
  %5 = alloca ptr, align 8
  %6 = alloca ptr, align 8
  store ptr %0, ptr %4, align 8
  store ptr %1, ptr %5, align 8
  store ptr %2, ptr %6, align 8
  br label %7

7:                                                ; preds = %3
  br label %8

8:                                                ; preds = %7
  %9 = load ptr, ptr %4, align 8
  %10 = load ptr, ptr %5, align 8
  %11 = call noundef nonnull align 8 dereferenceable(8) ptr @_ZSt3maxImERKT_S2_S2_(ptr noundef nonnull align 8 dereferenceable(8) %9, ptr noundef nonnull align 8 dereferenceable(8) %10)
  %12 = load ptr, ptr %6, align 8
  %13 = call noundef nonnull align 8 dereferenceable(8) ptr @_ZSt3minImERKT_S2_S2_(ptr noundef nonnull align 8 dereferenceable(8) %11, ptr noundef nonnull align 8 dereferenceable(8) %12)
  ret ptr %13
}

; Function Attrs: mustprogress nounwind uwtable
define linkonce_odr noundef nonnull align 8 dereferenceable(8) ptr @_ZSt3minImERKT_S2_S2_(ptr noundef nonnull align 8 dereferenceable(8) %0, ptr noundef nonnull align 8 dereferenceable(8) %1) #0 comdat {
  %3 = alloca ptr, align 8
  %4 = alloca ptr, align 8
  %5 = alloca ptr, align 8
  store ptr %0, ptr %4, align 8
  store ptr %1, ptr %5, align 8
  %6 = load ptr, ptr %5, align 8
  %7 = load i64, ptr %6, align 8
  %8 = load ptr, ptr %4, align 8
  %9 = load i64, ptr %8, align 8
  %10 = icmp ult i64 %7, %9
  br i1 %10, label %11, label %13

11:                                               ; preds = %2
  %12 = load ptr, ptr %5, align 8
  store ptr %12, ptr %3, align 8
  br label %15

13:                                               ; preds = %2
  %14 = load ptr, ptr %4, align 8
  store ptr %14, ptr %3, align 8
  br label %15

15:                                               ; preds = %13, %11
  %16 = load ptr, ptr %3, align 8
  ret ptr %16
}

; Function Attrs: mustprogress nounwind uwtable
define linkonce_odr hidden noundef zeroext i1 @_ZNK4llvm9StringRef5emptyEv(ptr noundef nonnull align 8 dereferenceable(16) %0) #0 comdat align 2 {
  %2 = alloca ptr, align 8
  store ptr %0, ptr %2, align 8
  %3 = load ptr, ptr %2, align 8
  %4 = getelementptr inbounds nuw %"class.llvm::StringRef", ptr %3, i32 0, i32 1
  %5 = load i64, ptr %4, align 8
  %6 = icmp eq i64 %5, 0
  ret i1 %6
}

; Function Attrs: mustprogress nounwind uwtable
define linkonce_odr hidden { ptr, i64 } @_ZNK4llvm9StringRef6substrEmm(ptr noundef nonnull align 8 dereferenceable(16) %0, i64 noundef %1, i64 noundef %2) #0 comdat align 2 {
  %4 = alloca %"class.llvm::StringRef", align 8
  %5 = alloca ptr, align 8
  %6 = alloca i64, align 8
  %7 = alloca i64, align 8
  %8 = alloca i64, align 8
  store ptr %0, ptr %5, align 8
  store i64 %1, ptr %6, align 8
  store i64 %2, ptr %7, align 8
  %9 = load ptr, ptr %5, align 8
  %10 = getelementptr inbounds nuw %"class.llvm::StringRef", ptr %9, i32 0, i32 1
  %11 = call noundef nonnull align 8 dereferenceable(8) ptr @_ZSt3minImERKT_S2_S2_(ptr noundef nonnull align 8 dereferenceable(8) %6, ptr noundef nonnull align 8 dereferenceable(8) %10)
  %12 = load i64, ptr %11, align 8
  store i64 %12, ptr %6, align 8
  %13 = getelementptr inbounds nuw %"class.llvm::StringRef", ptr %9, i32 0, i32 0
  %14 = load ptr, ptr %13, align 8
  %15 = load i64, ptr %6, align 8
  %16 = getelementptr inbounds i8, ptr %14, i64 %15
  %17 = getelementptr inbounds nuw %"class.llvm::StringRef", ptr %9, i32 0, i32 1
  %18 = load i64, ptr %17, align 8
  %19 = load i64, ptr %6, align 8
  %20 = sub i64 %18, %19
  store i64 %20, ptr %8, align 8
  %21 = call noundef nonnull align 8 dereferenceable(8) ptr @_ZSt3minImERKT_S2_S2_(ptr noundef nonnull align 8 dereferenceable(8) %7, ptr noundef nonnull align 8 dereferenceable(8) %8)
  %22 = load i64, ptr %21, align 8
  call void @_ZN4llvm9StringRefC2EPKcm(ptr noundef nonnull align 8 dereferenceable(16) %4, ptr noundef %16, i64 noundef %22)
  %23 = load { ptr, i64 }, ptr %4, align 8
  ret { ptr, i64 } %23
}

; Function Attrs: mustprogress nounwind uwtable
define linkonce_odr hidden noundef i64 @_ZNK4llvm9StringRef4sizeEv(ptr noundef nonnull align 8 dereferenceable(16) %0) #0 comdat align 2 {
  %2 = alloca ptr, align 8
  store ptr %0, ptr %2, align 8
  %3 = load ptr, ptr %2, align 8
  %4 = getelementptr inbounds nuw %"class.llvm::StringRef", ptr %3, i32 0, i32 1
  %5 = load i64, ptr %4, align 8
  ret i64 %5
}

; Function Attrs: mustprogress nounwind uwtable
define linkonce_odr hidden void @_ZN4llvm23SmallVectorTemplateBaseINS_9StringRefELb1EE9push_backES1_(ptr noundef nonnull align 8 dereferenceable(16) %0, ptr %1, i64 %2) #0 comdat align 2 {
  %4 = alloca %"class.llvm::StringRef", align 8
  %5 = alloca ptr, align 8
  %6 = alloca ptr, align 8
  %7 = getelementptr inbounds nuw { ptr, i64 }, ptr %4, i32 0, i32 0
  store ptr %1, ptr %7, align 8
  %8 = getelementptr inbounds nuw { ptr, i64 }, ptr %4, i32 0, i32 1
  store i64 %2, ptr %8, align 8
  store ptr %0, ptr %5, align 8
  %9 = load ptr, ptr %5, align 8
  %10 = call noundef ptr @_ZN4llvm23SmallVectorTemplateBaseINS_9StringRefELb1EE28reserveForParamAndGetAddressERS1_m(ptr noundef nonnull align 8 dereferenceable(16) %9, ptr noundef nonnull align 8 dereferenceable(16) %4, i64 noundef 1)
  store ptr %10, ptr %6, align 8
  %11 = call noundef ptr @_ZN4llvm25SmallVectorTemplateCommonINS_9StringRefEvE3endEv(ptr noundef nonnull align 8 dereferenceable(16) %9)
  %12 = load ptr, ptr %6, align 8
  call void @llvm.memcpy.p0.p0.i64(ptr align 1 %11, ptr align 8 %12, i64 16, i1 false)
  %13 = call noundef i64 @_ZNK4llvm15SmallVectorBaseIjE4sizeEv(ptr noundef nonnull align 8 dereferenceable(16) %9)
  %14 = add i64 %13, 1
  call void @_ZN4llvm15SmallVectorBaseIjE8set_sizeEm(ptr noundef nonnull align 8 dereferenceable(16) %9, i64 noundef %14)
  ret void
}

; Function Attrs: mustprogress nounwind uwtable
define linkonce_odr hidden { ptr, i64 } @_ZNK4llvm9StringRef5sliceEmm(ptr noundef nonnull align 8 dereferenceable(16) %0, i64 noundef %1, i64 noundef %2) #0 comdat align 2 {
  %4 = alloca %"class.llvm::StringRef", align 8
  %5 = alloca ptr, align 8
  %6 = alloca i64, align 8
  %7 = alloca i64, align 8
  store ptr %0, ptr %5, align 8
  store i64 %1, ptr %6, align 8
  store i64 %2, ptr %7, align 8
  %8 = load ptr, ptr %5, align 8
  %9 = getelementptr inbounds nuw %"class.llvm::StringRef", ptr %8, i32 0, i32 1
  %10 = call noundef nonnull align 8 dereferenceable(8) ptr @_ZSt3minImERKT_S2_S2_(ptr noundef nonnull align 8 dereferenceable(8) %6, ptr noundef nonnull align 8 dereferenceable(8) %9)
  %11 = load i64, ptr %10, align 8
  store i64 %11, ptr %6, align 8
  %12 = getelementptr inbounds nuw %"class.llvm::StringRef", ptr %8, i32 0, i32 1
  %13 = call noundef nonnull align 8 dereferenceable(8) ptr @_ZSt5clampImERKT_S2_S2_S2_(ptr noundef nonnull align 8 dereferenceable(8) %7, ptr noundef nonnull align 8 dereferenceable(8) %6, ptr noundef nonnull align 8 dereferenceable(8) %12)
  %14 = load i64, ptr %13, align 8
  store i64 %14, ptr %7, align 8
  %15 = getelementptr inbounds nuw %"class.llvm::StringRef", ptr %8, i32 0, i32 0
  %16 = load ptr, ptr %15, align 8
  %17 = load i64, ptr %6, align 8
  %18 = getelementptr inbounds i8, ptr %16, i64 %17
  %19 = load i64, ptr %7, align 8
  %20 = load i64, ptr %6, align 8
  %21 = sub i64 %19, %20
  call void @_ZN4llvm9StringRefC2EPKcm(ptr noundef nonnull align 8 dereferenceable(16) %4, ptr noundef %18, i64 noundef %21)
  %22 = load { ptr, i64 }, ptr %4, align 8
  ret { ptr, i64 } %22
}

; Function Attrs: mustprogress nounwind uwtable
define dso_local void @_ZNK4llvm9StringRef5splitERNS_15SmallVectorImplIS0_EES0_ib(ptr noundef nonnull align 8 dereferenceable(16) %0, ptr noundef nonnull align 8 dereferenceable(16) %1, ptr %2, i64 %3, i32 noundef %4, i1 noundef zeroext %5) #0 align 2 {
  %7 = alloca %"class.llvm::StringRef", align 8
  %8 = alloca ptr, align 8
  %9 = alloca ptr, align 8
  %10 = alloca i32, align 4
  %11 = alloca i8, align 1
  %12 = alloca %"class.llvm::StringRef", align 8
  %13 = alloca i64, align 8
  %14 = alloca %"class.llvm::StringRef", align 8
  %15 = alloca %"class.llvm::StringRef", align 8
  %16 = alloca %"class.llvm::StringRef", align 8
  %17 = alloca %"class.llvm::StringRef", align 8
  %18 = getelementptr inbounds nuw { ptr, i64 }, ptr %7, i32 0, i32 0
  store ptr %2, ptr %18, align 8
  %19 = getelementptr inbounds nuw { ptr, i64 }, ptr %7, i32 0, i32 1
  store i64 %3, ptr %19, align 8
  store ptr %0, ptr %8, align 8
  store ptr %1, ptr %9, align 8
  store i32 %4, ptr %10, align 4
  %20 = zext i1 %5 to i8
  store i8 %20, ptr %11, align 1
  %21 = load ptr, ptr %8, align 8
  call void @llvm.memcpy.p0.p0.i64(ptr align 8 %12, ptr align 8 %21, i64 16, i1 false)
  br label %22

22:                                               ; preds = %53, %6
  %23 = load i32, ptr %10, align 4
  %24 = add nsw i32 %23, -1
  store i32 %24, ptr %10, align 4
  %25 = icmp ne i32 %23, 0
  br i1 %25, label %26, label %62

26:                                               ; preds = %22
  call void @llvm.memcpy.p0.p0.i64(ptr align 8 %14, ptr align 8 %7, i64 16, i1 false)
  %27 = getelementptr inbounds nuw { ptr, i64 }, ptr %14, i32 0, i32 0
  %28 = load ptr, ptr %27, align 8
  %29 = getelementptr inbounds nuw { ptr, i64 }, ptr %14, i32 0, i32 1
  %30 = load i64, ptr %29, align 8
  %31 = call noundef i64 @_ZNK4llvm9StringRef4findES0_m(ptr noundef nonnull align 8 dereferenceable(16) %12, ptr %28, i64 %30, i64 noundef 0)
  store i64 %31, ptr %13, align 8
  %32 = load i64, ptr %13, align 8
  %33 = icmp eq i64 %32, -1
  br i1 %33, label %34, label %35

34:                                               ; preds = %26
  br label %62

35:                                               ; preds = %26
  %36 = load i8, ptr %11, align 1
  %37 = trunc i8 %36 to i1
  br i1 %37, label %41, label %38

38:                                               ; preds = %35
  %39 = load i64, ptr %13, align 8
  %40 = icmp ugt i64 %39, 0
  br i1 %40, label %41, label %53

41:                                               ; preds = %38, %35
  %42 = load ptr, ptr %9, align 8
  %43 = load i64, ptr %13, align 8
  %44 = call { ptr, i64 } @_ZNK4llvm9StringRef5sliceEmm(ptr noundef nonnull align 8 dereferenceable(16) %12, i64 noundef 0, i64 noundef %43)
  %45 = getelementptr inbounds nuw { ptr, i64 }, ptr %15, i32 0, i32 0
  %46 = extractvalue { ptr, i64 } %44, 0
  store ptr %46, ptr %45, align 8
  %47 = getelementptr inbounds nuw { ptr, i64 }, ptr %15, i32 0, i32 1
  %48 = extractvalue { ptr, i64 } %44, 1
  store i64 %48, ptr %47, align 8
  %49 = getelementptr inbounds nuw { ptr, i64 }, ptr %15, i32 0, i32 0
  %50 = load ptr, ptr %49, align 8
  %51 = getelementptr inbounds nuw { ptr, i64 }, ptr %15, i32 0, i32 1
  %52 = load i64, ptr %51, align 8
  call void @_ZN4llvm23SmallVectorTemplateBaseINS_9StringRefELb1EE9push_backES1_(ptr noundef nonnull align 8 dereferenceable(16) %42, ptr %50, i64 %52)
  br label %53

53:                                               ; preds = %41, %38
  %54 = load i64, ptr %13, align 8
  %55 = call noundef i64 @_ZNK4llvm9StringRef4sizeEv(ptr noundef nonnull align 8 dereferenceable(16) %7)
  %56 = add i64 %54, %55
  %57 = call { ptr, i64 } @_ZNK4llvm9StringRef6substrEmm(ptr noundef nonnull align 8 dereferenceable(16) %12, i64 noundef %56, i64 noundef -1)
  %58 = getelementptr inbounds nuw { ptr, i64 }, ptr %16, i32 0, i32 0
  %59 = extractvalue { ptr, i64 } %57, 0
  store ptr %59, ptr %58, align 8
  %60 = getelementptr inbounds nuw { ptr, i64 }, ptr %16, i32 0, i32 1
  %61 = extractvalue { ptr, i64 } %57, 1
  store i64 %61, ptr %60, align 8
  call void @llvm.memcpy.p0.p0.i64(ptr align 8 %12, ptr align 8 %16, i64 16, i1 false)
  br label %22, !llvm.loop !25

62:                                               ; preds = %34, %22
  %63 = load i8, ptr %11, align 1
  %64 = trunc i8 %63 to i1
  br i1 %64, label %67, label %65

65:                                               ; preds = %62
  %66 = call noundef zeroext i1 @_ZNK4llvm9StringRef5emptyEv(ptr noundef nonnull align 8 dereferenceable(16) %12)
  br i1 %66, label %73, label %67

67:                                               ; preds = %65, %62
  %68 = load ptr, ptr %9, align 8
  call void @llvm.memcpy.p0.p0.i64(ptr align 8 %17, ptr align 8 %12, i64 16, i1 false)
  %69 = getelementptr inbounds nuw { ptr, i64 }, ptr %17, i32 0, i32 0
  %70 = load ptr, ptr %69, align 8
  %71 = getelementptr inbounds nuw { ptr, i64 }, ptr %17, i32 0, i32 1
  %72 = load i64, ptr %71, align 8
  call void @_ZN4llvm23SmallVectorTemplateBaseINS_9StringRefELb1EE9push_backES1_(ptr noundef nonnull align 8 dereferenceable(16) %68, ptr %70, i64 %72)
  br label %73

73:                                               ; preds = %67, %65
  ret void
}