; Function Attrs: mustprogress nounwind uwtable
define dso_local void @_ZNK4llvm9StringRef5splitERNS_15SmallVectorImplIS0_EES0_ib(ptr noundef nonnull readonly align 8 captures(none) dereferenceable(16) %0, ptr noundef nonnull align 8 dereferenceable(16) %1, ptr readonly captures(none) %2, i64 %3, i32 noundef %4, i1 noundef zeroext %5) local_unnamed_addr #1 align 2 {
  %7 = alloca %"class.llvm::StringRef", align 8
  call void @llvm.memcpy.p0.p0.i64(ptr noundef nonnull align 8 dereferenceable(16) %7, ptr noundef nonnull align 8 dereferenceable(16) %0, i64 16, i1 false)
  %.not28 = icmp eq i32 %4, 0
  br i1 %.not28, label %.._crit_edge_crit_edge, label %.lr.ph

.._crit_edge_crit_edge:                           ; preds = %6
  %.phi.trans.insert = getelementptr inbounds nuw i8, ptr %7, i64 8
  %.pre = load i64, ptr %.phi.trans.insert, align 8
  br label %._crit_edge

.lr.ph:                                           ; preds = %6
  %.promoted = load ptr, ptr %7, align 8
  %8 = getelementptr inbounds nuw i8, ptr %7, i64 8
  %9 = getelementptr inbounds nuw i8, ptr %1, i64 16
  %.promoted30 = load i64, ptr %8, align 8
  br label %10

10:                                               ; preds = %.lr.ph, %29
  %11 = phi i64 [ %.promoted30, %.lr.ph ], [ %32, %29 ]
  %.in = phi i32 [ %4, %.lr.ph ], [ %13, %29 ]
  %12 = phi ptr [ %.promoted, %.lr.ph ], [ %31, %29 ]
  %13 = add nsw i32 %.in, -1
  %14 = call noundef i64 @_ZNK4llvm9StringRef4findES0_m(ptr noundef nonnull align 8 dereferenceable(16) %7, ptr %2, i64 %3, i64 noundef 0)
  %15 = icmp eq i64 %14, -1
  br i1 %15, label %._crit_edge, label %16

16:                                               ; preds = %10
  %17 = icmp ne i64 %14, 0
  %or.cond = or i1 %5, %17
  br i1 %or.cond, label %18, label %29

18:                                               ; preds = %16
  %19 = tail call i64 @llvm.umin.i64(i64 %14, i64 %11)
  %20 = tail call noundef i64 @_ZNK4llvm15SmallVectorBaseIjE4sizeEv(ptr noundef nonnull align 8 dereferenceable(16) %1) #20
  %21 = add i64 %20, 1
  %22 = tail call noundef i64 @_ZNK4llvm15SmallVectorBaseIjE8capacityEv(ptr noundef nonnull align 8 dereferenceable(16) %1) #20
  %.not.i.i.i = icmp ugt i64 %21, %22
  br i1 %.not.i.i.i, label %23, label %_ZN4llvm23SmallVectorTemplateBaseINS_9StringRefELb1EE9push_backES1_.exit

23:                                               ; preds = %18
  tail call void @_ZN4llvm15SmallVectorBaseIjE8grow_podEPvmm(ptr noundef nonnull align 8 dereferenceable(16) %1, ptr noundef nonnull %9, i64 noundef %21, i64 noundef 16) #20
  br label %_ZN4llvm23SmallVectorTemplateBaseINS_9StringRefELb1EE9push_backES1_.exit

_ZN4llvm23SmallVectorTemplateBaseINS_9StringRefELb1EE9push_backES1_.exit: ; preds = %18, %23
  %24 = load ptr, ptr %1, align 8
  %25 = tail call noundef i64 @_ZNK4llvm15SmallVectorBaseIjE4sizeEv(ptr noundef nonnull align 8 dereferenceable(16) %1) #20
  %26 = getelementptr inbounds %"class.llvm::StringRef", ptr %24, i64 %25
  store ptr %12, ptr %26, align 1
  %.sroa.2.0..sroa_idx.i = getelementptr inbounds nuw i8, ptr %26, i64 8
  store i64 %19, ptr %.sroa.2.0..sroa_idx.i, align 1
  %27 = tail call noundef i64 @_ZNK4llvm15SmallVectorBaseIjE4sizeEv(ptr noundef nonnull align 8 dereferenceable(16) %1) #20
  %28 = add i64 %27, 1
  tail call void @_ZN4llvm15SmallVectorBaseIjE8set_sizeEm(ptr noundef nonnull align 8 dereferenceable(16) %1, i64 noundef %28) #20
  br label %29

29:                                               ; preds = %16, %_ZN4llvm23SmallVectorTemplateBaseINS_9StringRefELb1EE9push_backES1_.exit
  %30 = add i64 %14, %3
  %.sroa.speculated5.i = tail call i64 @llvm.umin.i64(i64 %11, i64 %30)
  %31 = getelementptr inbounds i8, ptr %12, i64 %.sroa.speculated5.i
  %32 = sub i64 %11, %.sroa.speculated5.i
  store ptr %31, ptr %7, align 8
  store i64 %32, ptr %8, align 8
  %.not = icmp eq i32 %13, 0
  br i1 %.not, label %._crit_edge, label %10, !llvm.loop !26

._crit_edge:                                      ; preds = %29, %10, %.._crit_edge_crit_edge
  %.sroa.2.0.copyload = phi i64 [ %.pre, %.._crit_edge_crit_edge ], [ %32, %29 ], [ %11, %10 ]
  %33 = icmp ne i64 %.sroa.2.0.copyload, 0
  %or.cond26.not = select i1 %5, i1 true, i1 %33
  br i1 %or.cond26.not, label %34, label %45

34:                                               ; preds = %._crit_edge
  %.sroa.0.0.copyload = load ptr, ptr %7, align 8
  %35 = tail call noundef i64 @_ZNK4llvm15SmallVectorBaseIjE4sizeEv(ptr noundef nonnull align 8 dereferenceable(16) %1) #20
  %36 = add i64 %35, 1
  %37 = tail call noundef i64 @_ZNK4llvm15SmallVectorBaseIjE8capacityEv(ptr noundef nonnull align 8 dereferenceable(16) %1) #20
  %.not.i.i.i19 = icmp ugt i64 %36, %37
  br i1 %.not.i.i.i19, label %38, label %_ZN4llvm23SmallVectorTemplateBaseINS_9StringRefELb1EE9push_backES1_.exit21

38:                                               ; preds = %34
  %39 = getelementptr inbounds nuw i8, ptr %1, i64 16
  tail call void @_ZN4llvm15SmallVectorBaseIjE8grow_podEPvmm(ptr noundef nonnull align 8 dereferenceable(16) %1, ptr noundef nonnull %39, i64 noundef %36, i64 noundef 16) #20
  br label %_ZN4llvm23SmallVectorTemplateBaseINS_9StringRefELb1EE9push_backES1_.exit21

_ZN4llvm23SmallVectorTemplateBaseINS_9StringRefELb1EE9push_backES1_.exit21: ; preds = %34, %38
  %40 = load ptr, ptr %1, align 8
  %41 = tail call noundef i64 @_ZNK4llvm15SmallVectorBaseIjE4sizeEv(ptr noundef nonnull align 8 dereferenceable(16) %1) #20
  %42 = getelementptr inbounds %"class.llvm::StringRef", ptr %40, i64 %41
  store ptr %.sroa.0.0.copyload, ptr %42, align 1
  %.sroa.2.0..sroa_idx.i20 = getelementptr inbounds nuw i8, ptr %42, i64 8
  store i64 %.sroa.2.0.copyload, ptr %.sroa.2.0..sroa_idx.i20, align 1
  %43 = tail call noundef i64 @_ZNK4llvm15SmallVectorBaseIjE4sizeEv(ptr noundef nonnull align 8 dereferenceable(16) %1) #20
  %44 = add i64 %43, 1
  tail call void @_ZN4llvm15SmallVectorBaseIjE8set_sizeEm(ptr noundef nonnull align 8 dereferenceable(16) %1, i64 noundef %44) #20
  br label %45

45:                                               ; preds = %._crit_edge, %_ZN4llvm23SmallVectorTemplateBaseINS_9StringRefELb1EE9push_backES1_.exit21
  ret void
}